target datalayout = "e-m:e-p270:32:32-p271:32:32-p272:64:64-i64:64-i128:128-f80:128-n8:16:32:64-S128"
target triple = "x86_64-pc-linux-gnu"

@.str = private unnamed_addr constant [34 x i8] c"../openssl/crypto/cms/cms_smime.c\00", align 1
@__func__.CMS_decrypt_set1_key = private unnamed_addr constant [21 x i8] c"CMS_decrypt_set1_key\00", align 1

; Function Attrs: inlinehint nounwind uwtable
define internal ptr @ossl_check_const_CMS_RecipientInfo_sk_type(ptr noundef %0) #3 {
  %2 = alloca ptr, align 8
  store ptr %0, ptr %2, align 8, !tbaa !68
  %3 = load ptr, ptr %2, align 8, !tbaa !68
  ret ptr %3
}

; Function Attrs: nounwind uwtable
define i32 @CMS_decrypt_set1_key(ptr noundef %0, ptr noundef %1, i64 noundef %2, ptr noundef %3, i64 noundef %4) #0 {
  %6 = alloca i32, align 4
  %7 = alloca ptr, align 8
  %8 = alloca ptr, align 8
  %9 = alloca i64, align 8
  %10 = alloca ptr, align 8
  %11 = alloca i64, align 8
  %12 = alloca ptr, align 8
  %13 = alloca ptr, align 8
  %14 = alloca i32, align 4
  %15 = alloca i32, align 4
  %16 = alloca i32, align 4
  %17 = alloca i32, align 4
  store ptr %0, ptr %7, align 8, !tbaa !3
  store ptr %1, ptr %8, align 8, !tbaa !14
  store i64 %2, ptr %9, align 8, !tbaa !24
  store ptr %3, ptr %10, align 8, !tbaa !14
  store i64 %4, ptr %11, align 8, !tbaa !24
  call void @llvm.lifetime.start.p0(i64 8, ptr %12) #4
  call void @llvm.lifetime.start.p0(i64 8, ptr %13) #4
  call void @llvm.lifetime.start.p0(i64 4, ptr %14) #4
  call void @llvm.lifetime.start.p0(i64 4, ptr %15) #4
  call void @llvm.lifetime.start.p0(i64 4, ptr %16) #4
  store i32 0, ptr %16, align 4, !tbaa !10
  %18 = load ptr, ptr %7, align 8, !tbaa !3
  %19 = call ptr @CMS_get0_RecipientInfos(ptr noundef %18)
  store ptr %19, ptr %12, align 8, !tbaa !68
  store i32 0, ptr %14, align 4, !tbaa !10
  br label %20

20:                                               ; preds = %63, %5
  %21 = load i32, ptr %14, align 4, !tbaa !10
  %22 = load ptr, ptr %12, align 8, !tbaa !68
  %23 = call ptr @ossl_check_const_CMS_RecipientInfo_sk_type(ptr noundef %22)
  %24 = call i32 @OPENSSL_sk_num(ptr noundef %23)
  %25 = icmp slt i32 %21, %24
  br i1 %25, label %26, label %66

26:                                               ; preds = %20
  %27 = load ptr, ptr %12, align 8, !tbaa !68
  %28 = call ptr @ossl_check_const_CMS_RecipientInfo_sk_type(ptr noundef %27)
  %29 = load i32, ptr %14, align 4, !tbaa !10
  %30 = call ptr @OPENSSL_sk_value(ptr noundef %28, i32 noundef %29)
  store ptr %30, ptr %13, align 8, !tbaa !76
  %31 = load ptr, ptr %13, align 8, !tbaa !76
  %32 = call i32 @CMS_RecipientInfo_type(ptr noundef %31)
  %33 = icmp ne i32 %32, 2
  br i1 %33, label %34, label %35

34:                                               ; preds = %26
  br label %63

35:                                               ; preds = %26
  %36 = load ptr, ptr %10, align 8, !tbaa !14
  %37 = icmp eq ptr %36, null
  br i1 %37, label %44, label %38

38:                                               ; preds = %35
  %39 = load ptr, ptr %13, align 8, !tbaa !76
  %40 = load ptr, ptr %10, align 8, !tbaa !14
  %41 = load i64, ptr %11, align 8, !tbaa !24
  %42 = call i32 @CMS_RecipientInfo_kekri_id_cmp(ptr noundef %39, ptr noundef %40, i64 noundef %41)
  %43 = icmp eq i32 %42, 0
  br i1 %43, label %44, label %62

44:                                               ; preds = %38, %35
  store i32 1, ptr %16, align 4, !tbaa !10
  %45 = load ptr, ptr %13, align 8, !tbaa !76
  %46 = load ptr, ptr %8, align 8, !tbaa !14
  %47 = load i64, ptr %9, align 8, !tbaa !24
  %48 = call i32 @CMS_RecipientInfo_set0_key(ptr noundef %45, ptr noundef %46, i64 noundef %47)
  %49 = load ptr, ptr %7, align 8, !tbaa !3
  %50 = load ptr, ptr %13, align 8, !tbaa !76
  %51 = call i32 @CMS_RecipientInfo_decrypt(ptr noundef %49, ptr noundef %50)
  store i32 %51, ptr %15, align 4, !tbaa !10
  %52 = load ptr, ptr %13, align 8, !tbaa !76
  %53 = call i32 @CMS_RecipientInfo_set0_key(ptr noundef %52, ptr noundef null, i64 noundef 0)
  %54 = load i32, ptr %15, align 4, !tbaa !10
  %55 = icmp sgt i32 %54, 0
  br i1 %55, label %56, label %57

56:                                               ; preds = %44
  store i32 1, ptr %6, align 4
  store i32 1, ptr %17, align 4
  br label %71

57:                                               ; preds = %44
  %58 = load ptr, ptr %10, align 8, !tbaa !14
  %59 = icmp ne ptr %58, null
  br i1 %59, label %60, label %61

60:                                               ; preds = %57
  call void @ERR_new()
  call void @ERR_set_debug(ptr noundef @.str, i32 noundef 822, ptr noundef @__func__.CMS_decrypt_set1_key)
  call void (i32, i32, ptr, ...) @ERR_set_error(i32 noundef 46, i32 noundef 112, ptr noundef null)
  store i32 0, ptr %6, align 4
  store i32 1, ptr %17, align 4
  br label %71

61:                                               ; preds = %57
  call void @ERR_clear_error()
  br label %62

62:                                               ; preds = %61, %38
  br label %63

63:                                               ; preds = %62, %34
  %64 = load i32, ptr %14, align 4, !tbaa !10
  %65 = add nsw i32 %64, 1
  store i32 %65, ptr %14, align 4, !tbaa !10
  br label %20, !llvm.loop !84

66:                                               ; preds = %20
  %67 = load i32, ptr %16, align 4, !tbaa !10
  %68 = icmp ne i32 %67, 0
  br i1 %68, label %70, label %69

69:                                               ; preds = %66
  call void @ERR_new()
  call void @ERR_set_debug(ptr noundef @.str, i32 noundef 830, ptr noundef @__func__.CMS_decrypt_set1_key)
  call void (i32, i32, ptr, ...) @ERR_set_error(i32 noundef 46, i32 noundef 132, ptr noundef null)
  br label %70

70:                                               ; preds = %69, %66
  store i32 0, ptr %6, align 4
  store i32 1, ptr %17, align 4
  br label %71

71:                                               ; preds = %70, %60, %56
  call void @llvm.lifetime.end.p0(i64 4, ptr %16) #4
  call void @llvm.lifetime.end.p0(i64 4, ptr %15) #4
  call void @llvm.lifetime.end.p0(i64 4, ptr %14) #4
  call void @llvm.lifetime.end.p0(i64 8, ptr %13) #4
  call void @llvm.lifetime.end.p0(i64 8, ptr %12) #4
  %72 = load i32, ptr %6, align 4
  ret i32 %72
}