; Function Attrs: nounwind uwtable
define range(i32 0, 2) i32 @CMS_decrypt_set1_key(ptr noundef %0, ptr noundef %1, i64 noundef %2, ptr noundef %3, i64 noundef %4) local_unnamed_addr #0 {
  %6 = tail call ptr @CMS_get0_RecipientInfos(ptr noundef %0) #4
  %7 = tail call i32 @OPENSSL_sk_num(ptr noundef %6) #4
  %8 = icmp sgt i32 %7, 0
  br i1 %8, label %.lr.ph, label %.loopexit.sink.split

.lr.ph:                                           ; preds = %5
  %9 = icmp eq ptr %3, null
  br i1 %9, label %.lr.ph.split.us.split, label %.lr.ph.split

.lr.ph.split.us.split:                            ; preds = %.lr.ph, %18
  %.028.us = phi i32 [ %.1.us, %18 ], [ 0, %.lr.ph ]
  %.02127.us = phi i32 [ %19, %18 ], [ 0, %.lr.ph ]
  %10 = tail call ptr @OPENSSL_sk_value(ptr noundef %6, i32 noundef %.02127.us) #4
  %11 = tail call i32 @CMS_RecipientInfo_type(ptr noundef %10) #4
  %.not23.us = icmp eq i32 %11, 2
  br i1 %.not23.us, label %12, label %18

12:                                               ; preds = %.lr.ph.split.us.split
  %13 = tail call i32 @CMS_RecipientInfo_set0_key(ptr noundef %10, ptr noundef %1, i64 noundef %2) #4
  %14 = tail call i32 @CMS_RecipientInfo_decrypt(ptr noundef %0, ptr noundef %10) #4
  %15 = tail call i32 @CMS_RecipientInfo_set0_key(ptr noundef %10, ptr noundef null, i64 noundef 0) #4
  %16 = icmp sgt i32 %14, 0
  br i1 %16, label %.loopexit, label %17

17:                                               ; preds = %12
  tail call void @ERR_clear_error() #4
  br label %18

18:                                               ; preds = %17, %.lr.ph.split.us.split
  %.1.us = phi i32 [ %.028.us, %.lr.ph.split.us.split ], [ 1, %17 ]
  %19 = add nuw nsw i32 %.02127.us, 1
  %20 = tail call i32 @OPENSSL_sk_num(ptr noundef %6) #4
  %21 = icmp slt i32 %19, %20
  br i1 %21, label %.lr.ph.split.us.split, label %._crit_edge, !llvm.loop !47

.lr.ph.split:                                     ; preds = %.lr.ph, %32
  %.02127 = phi i32 [ %33, %32 ], [ 0, %.lr.ph ]
  %22 = tail call ptr @OPENSSL_sk_value(ptr noundef %6, i32 noundef %.02127) #4
  %23 = tail call i32 @CMS_RecipientInfo_type(ptr noundef %22) #4
  %.not23 = icmp eq i32 %23, 2
  br i1 %.not23, label %24, label %32

24:                                               ; preds = %.lr.ph.split
  %25 = tail call i32 @CMS_RecipientInfo_kekri_id_cmp(ptr noundef %22, ptr noundef nonnull %3, i64 noundef %4) #4
  %26 = icmp eq i32 %25, 0
  br i1 %26, label %27, label %32

27:                                               ; preds = %24
  %28 = tail call i32 @CMS_RecipientInfo_set0_key(ptr noundef %22, ptr noundef %1, i64 noundef %2) #4
  %29 = tail call i32 @CMS_RecipientInfo_decrypt(ptr noundef %0, ptr noundef %22) #4
  %30 = tail call i32 @CMS_RecipientInfo_set0_key(ptr noundef %22, ptr noundef null, i64 noundef 0) #4
  %31 = icmp sgt i32 %29, 0
  br i1 %31, label %.loopexit, label %.loopexit.sink.split

32:                                               ; preds = %24, %.lr.ph.split
  %33 = add nuw nsw i32 %.02127, 1
  %34 = tail call i32 @OPENSSL_sk_num(ptr noundef %6) #4
  %35 = icmp slt i32 %33, %34
  br i1 %35, label %.lr.ph.split, label %.loopexit.sink.split, !llvm.loop !47

._crit_edge:                                      ; preds = %18
  %36 = icmp eq i32 %.1.us, 0
  br i1 %36, label %.loopexit.sink.split, label %.loopexit

.loopexit.sink.split:                             ; preds = %32, %._crit_edge, %5, %27
  %.sink33 = phi i32 [ 822, %27 ], [ 830, %5 ], [ 830, %._crit_edge ], [ 830, %32 ]
  %.sink = phi i32 [ 112, %27 ], [ 132, %5 ], [ 132, %._crit_edge ], [ 132, %32 ]
  tail call void @ERR_new() #4
  tail call void @ERR_set_debug(ptr noundef nonnull @.str, i32 noundef %.sink33, ptr noundef nonnull @__func__.CMS_decrypt_set1_key) #4
  tail call void (i32, i32, ptr, ...) @ERR_set_error(i32 noundef 46, i32 noundef %.sink, ptr noundef null) #4
  br label %.loopexit

.loopexit:                                        ; preds = %12, %.loopexit.sink.split, %27, %._crit_edge
  %.020 = phi i32 [ 0, %._crit_edge ], [ 1, %27 ], [ 0, %.loopexit.sink.split ], [ 1, %12 ]
  ret i32 %.020
}